target datalayout = "e-m:e-p270:32:32-p271:32:32-p272:64:64-i64:64-i128:128-f80:128-n8:16:32:64-S128"
target triple = "x86_64-pc-linux-gnu"

%struct.FT_Vector_ = type { i64, i64 }
%struct.FT_StrokerRec_ = type { i64, i64, %struct.FT_Vector_, i64, i8, i8, i64, %struct.FT_Vector_, i64, i8, i32, i32, i32, i64, i64, [2 x %struct.FT_StrokeBorderRec_], ptr }
%struct.FT_StrokeBorderRec_ = type { i32, i32, ptr, ptr, i8, i32, ptr, i8 }

; Function Attrs: nounwind uwtable
define i32 @FT_Stroker_BeginSubPath(ptr noundef %0, ptr noundef %1, i8 noundef zeroext %2) #0 {
  %4 = alloca i32, align 4
  %5 = alloca ptr, align 8
  %6 = alloca ptr, align 8
  %7 = alloca i8, align 1
  store ptr %0, ptr %5, align 8
  store ptr %1, ptr %6, align 8
  store i8 %2, ptr %7, align 1
  %8 = load ptr, ptr %5, align 8
  %9 = icmp ne ptr %8, null
  br i1 %9, label %10, label %13

10:                                               ; preds = %3
  %11 = load ptr, ptr %6, align 8
  %12 = icmp ne ptr %11, null
  br i1 %12, label %14, label %13

13:                                               ; preds = %10, %3
  store i32 6, ptr %4, align 4
  br label %53

14:                                               ; preds = %10
  %15 = load ptr, ptr %5, align 8
  %16 = getelementptr inbounds %struct.FT_StrokerRec_, ptr %15, i32 0, i32 4
  store i8 1, ptr %16, align 8
  %17 = load ptr, ptr %5, align 8
  %18 = getelementptr inbounds %struct.FT_StrokerRec_, ptr %17, i32 0, i32 2
  %19 = load ptr, ptr %6, align 8
  call void @llvm.memcpy.p0.p0.i64(ptr align 8 %18, ptr align 8 %19, i64 16, i1 false)
  %20 = load i8, ptr %7, align 1
  %21 = load ptr, ptr %5, align 8
  %22 = getelementptr inbounds %struct.FT_StrokerRec_, ptr %21, i32 0, i32 5
  store i8 %20, ptr %22, align 1
  %23 = load ptr, ptr %5, align 8
  %24 = getelementptr inbounds %struct.FT_StrokerRec_, ptr %23, i32 0, i32 11
  %25 = load i32, ptr %24, align 8
  %26 = icmp ne i32 %25, 0
  br i1 %26, label %40, label %27

27:                                               ; preds = %14
  %28 = load ptr, ptr %5, align 8
  %29 = getelementptr inbounds %struct.FT_StrokerRec_, ptr %28, i32 0, i32 5
  %30 = load i8, ptr %29, align 1
  %31 = zext i8 %30 to i32
  %32 = icmp ne i32 %31, 0
  br i1 %32, label %33, label %38

33:                                               ; preds = %27
  %34 = load ptr, ptr %5, align 8
  %35 = getelementptr inbounds %struct.FT_StrokerRec_, ptr %34, i32 0, i32 10
  %36 = load i32, ptr %35, align 4
  %37 = icmp eq i32 %36, 0
  br label %38

38:                                               ; preds = %33, %27
  %39 = phi i1 [ false, %27 ], [ %37, %33 ]
  br label %40

40:                                               ; preds = %38, %14
  %41 = phi i1 [ true, %14 ], [ %39, %38 ]
  %42 = zext i1 %41 to i32
  %43 = icmp ne i32 %42, 0
  %44 = zext i1 %43 to i32
  %45 = trunc i32 %44 to i8
  %46 = load ptr, ptr %5, align 8
  %47 = getelementptr inbounds %struct.FT_StrokerRec_, ptr %46, i32 0, i32 9
  store i8 %45, ptr %47, align 8
  %48 = load ptr, ptr %5, align 8
  %49 = getelementptr inbounds %struct.FT_StrokerRec_, ptr %48, i32 0, i32 7
  %50 = load ptr, ptr %6, align 8
  call void @llvm.memcpy.p0.p0.i64(ptr align 8 %49, ptr align 8 %50, i64 16, i1 false)
  %51 = load ptr, ptr %5, align 8
  %52 = getelementptr inbounds %struct.FT_StrokerRec_, ptr %51, i32 0, i32 0
  store i64 0, ptr %52, align 8
  store i32 0, ptr %4, align 4
  br label %53

53:                                               ; preds = %40, %13
  %54 = load i32, ptr %4, align 4
  ret i32 %54
}