; Function Attrs: mustprogress nofree norecurse nosync nounwind willreturn memory(argmem: readwrite) uwtable
define range(i32 0, 7) i32 @FT_Stroker_BeginSubPath(ptr noundef %0, ptr noundef readonly %1, i8 noundef zeroext %2) local_unnamed_addr #4 {
  %4 = icmp ne ptr %0, null
  %5 = icmp ne ptr %1, null
  %or.cond = and i1 %4, %5
  br i1 %or.cond, label %6, label %22

6:                                                ; preds = %3
  %7 = getelementptr inbounds nuw i8, ptr %0, i64 40
  store i8 1, ptr %7, align 8
  %8 = getelementptr inbounds nuw i8, ptr %0, i64 16
  tail call void @llvm.memcpy.p0.p0.i64(ptr noundef nonnull align 8 dereferenceable(16) %8, ptr noundef nonnull align 8 dereferenceable(16) %1, i64 16, i1 false)
  %9 = getelementptr inbounds nuw i8, ptr %0, i64 41
  store i8 %2, ptr %9, align 1
  %10 = getelementptr inbounds nuw i8, ptr %0, i64 88
  %11 = load i32, ptr %10, align 8
  %.not = icmp eq i32 %11, 0
  br i1 %.not, label %12, label %18

12:                                               ; preds = %6
  %.not17 = icmp eq i8 %2, 0
  br i1 %.not17, label %18, label %13

13:                                               ; preds = %12
  %14 = getelementptr inbounds nuw i8, ptr %0, i64 84
  %15 = load i32, ptr %14, align 4
  %16 = icmp eq i32 %15, 0
  %17 = zext i1 %16 to i8
  br label %18

18:                                               ; preds = %12, %13, %6
  %19 = phi i8 [ 1, %6 ], [ 0, %12 ], [ %17, %13 ]
  %20 = getelementptr inbounds nuw i8, ptr %0, i64 80
  store i8 %19, ptr %20, align 8
  %21 = getelementptr inbounds nuw i8, ptr %0, i64 56
  tail call void @llvm.memcpy.p0.p0.i64(ptr noundef nonnull align 8 dereferenceable(16) %21, ptr noundef nonnull align 8 dereferenceable(16) %1, i64 16, i1 false)
  store i64 0, ptr %0, align 8
  br label %22

22:                                               ; preds = %3, %18
  %.0 = phi i32 [ 0, %18 ], [ 6, %3 ]
  ret i32 %.0
}